Certificate:
    Data:
        Version: 3 (0x2)
        Serial Number: 1 (0x1)
        Signature Algorithm: sha256WithRSAEncryption
        Issuer: C=CN, O=FuckGFW Foundation, CN=Pixiv.net
        Validity
            Not Before: Sep 11 09:50:28 2024 GMT
            Not After : Sep 11 09:50:28 2025 GMT
        Subject: C=CN, O=FuckGFW Foundation, CN=PixivCA
        Subject Public Key Info:
            Public Key Algorithm: rsaEncryption
                Public-Key: (2048 bit)
                Modulus:
                    00:99:2a:6c:20:31:a6:49:7f:bb:ab:66:b8:ea:a5:
                    38:ac:fb:c3:5a:2b:83:eb:60:11:7f:a7:21:8a:d2:
                    ff:bb:0b:46:8a:d4:ed:c9:42:40:2f:41:00:69:7f:
                    98:97:41:f9:2b:d4:b8:33:90:c6:f2:a1:23:23:4c:
                    37:d9:00:d6:bc:f0:83:af:2e:e9:c9:cd:a3:37:ec:
                    61:37:ec:0f:4e:65:32:fd:8e:10:c1:49:ff:46:05:
                    59:ad:71:b9:37:9a:32:70:71:77:22:52:37:94:13:
                    a8:81:9f:d9:55:7f:65:95:cb:a7:a8:a5:bd:4a:45:
                    98:c5:c4:b3:9c:93:a7:fb:fa:ef:90:9c:18:e6:89:
                    46:5a:ac:38:b0:22:5f:1d:25:cc:4d:36:b1:47:a5:
                    1b:16:d2:94:8e:6a:66:14:8a:30:57:4d:4c:56:72:
                    6f:47:c2:ba:23:9e:db:0c:80:9d:55:6d:45:a5:77:
                    cf:4a:b1:1f:7c:32:b2:db:27:83:41:82:86:d7:7f:
                    72:07:50:11:75:64:e4:48:83:72:27:75:2c:03:81:
                    95:cd:cf:f9:75:b6:52:59:95:ac:2e:2f:0f:d8:a1:
                    61:a5:e2:06:ba:c5:f5:e5:ec:de:d2:d9:53:ec:1a:
                    d7:71:1e:fc:f5:44:ee:10:1b:11:8b:92:16:f0:18:
                    c2:3d
                Exponent: 65537 (0x10001)
        X509v3 extensions:
            X509v3 Key Usage: 
                Digital Signature
            X509v3 Extended Key Usage: 
                TLS Web Server Authentication, TLS Web Client Authentication
            X509v3 Basic Constraints: 
                CA:FALSE
            X509v3 Subject Alternative Name: 
                DNS:*.pixiv.net, DNS:pixiv.net, DNS:*.secure.pixiv.net, DNS:pixivision.net, DNS:*.pixivision.net, DNS:pixiv.me, DNS:*.pixiv.me, DNS:pximg.net, DNS:*.pximg.net, DNS:pixivsketch.net, DNS:*.pixivsketch.net, DNS:public-api.secure.pixiv.net, DNS:wikipedia.org, DNS:*.wikipedia.org, DNS:m.wikipedia.org, DNS:*.m.wikipedia.org, DNS:google.com, DNS:*.google.com, DNS:steamcommunity.com, DNS:*.steamcommunity.com, DNS:steampowered.com, DNS:*.steampowered.com, DNS:archiveofourown.org, DNS:*.archiveofourown.org, DNS:nyaa.si, DNS:*.nyaa.si, DNS:wikimedia.org, DNS:upload.wikimedia.org, DNS:exhentai.org, DNS:e-hentai.org, DNS:forums.e-hentai.org
            X509v3 Subject Key Identifier: 
                FD:B2:B4:E9:FA:6D:43:42:0E:26:8E:48:C4:04:F6:40:ED:10:B4:4C
            X509v3 Authority Key Identifier: 
                23:7C:56:60:9A:79:B1:6C:C9:D5:EC:BE:CB:C2:A5:24:92:E1:5D:82
    Signature Algorithm: sha256WithRSAEncryption
    Signature Value:
        0c:2d:be:91:eb:de:3e:07:e4:3a:65:81:69:be:e3:4a:ee:82:
        20:d9:d7:8e:a1:ad:8f:50:b5:22:8c:e5:87:2a:25:24:77:16:
        74:21:3a:ef:84:06:7a:ec:8c:dc:0b:30:d8:59:04:1e:7e:83:
        a3:b7:1b:25:2a:d6:75:f6:8e:54:6e:3c:ea:cf:bb:62:c0:07:
        a6:18:f9:ad:1f:c6:3b:d1:ec:1d:2a:ff:c9:5d:c7:b4:71:6f:
        0e:14:e4:4c:56:4d:2b:f8:9a:5f:ba:06:8c:17:d4:c4:8d:de:
        ae:3d:02:cc:5b:ec:85:e7:08:02:14:de:38:cc:e5:f0:b1:0d:
        62:96:1a:54:a9:af:b7:35:7d:44:34:0d:d4:ca:e5:ea:dd:ca:
        d5:ef:c9:d2:1c:80:27:cf:01:83:f7:75:da:ac:ae:dd:1f:34:
        2f:e8:15:7d:9e:97:4d:ba:29:7b:58:f1:80:e5:70:be:6c:d4:
        16:3f:1a:03:f0:52:06:0b:27:e2:bd:f8:a8:fb:bb:50:df:99:
        45:9a:24:98:18:02:86:ab:61:29:db:f5:0b:4e:10:06:3d:91:
        ac:64:27:f0:3d:ac:a2:aa:60:0b:d5:12:11:a3:bc:8a:02:7c:
        22:3d:9c:dc:7a:4c:fb:1b:df:0c:84:3c:10:50:13:98:20:ff:
        c1:fa:98:5b
-----BEGIN CERTIFICATE-----
MIIFhDCCBGygAwIBAgIBATANBgkqhkiG9w0BAQsFADA+MQswCQYDVQQGEwJDTjEb
MBkGA1UECgwSRnVja0dGVyBGb3VuZGF0aW9uMRIwEAYDVQQDDAlQaXhpdi5uZXQw
HhcNMjQwOTExMDk1MDI4WhcNMjUwOTExMDk1MDI4WjA8MQswCQYDVQQGEwJDTjEb
MBkGA1UECgwSRnVja0dGVyBGb3VuZGF0aW9uMRAwDgYDVQQDDAdQaXhpdkNBMIIB
IjANBgkqhkiG9w0BAQEFAAOCAQ8AMIIBCgKCAQEAmSpsIDGmSX+7q2a46qU4rPvD
WiuD62ARf6chitL/uwtGitTtyUJAL0EAaX+Yl0H5K9S4M5DG8qEjI0w32QDWvPCD
ry7pyc2jN+xhN+wPTmUy/Y4QwUn/RgVZrXG5N5oycHF3IlI3lBOogZ/ZVX9llcun
qKW9SkWYxcSznJOn+/rvkJwY5olGWqw4sCJfHSXMTTaxR6UbFtKUjmpmFIowV01M
VnJvR8K6I57bDICdVW1FpXfPSrEffDKy2yeDQYKG139yB1ARdWTkSINyJ3UsA4GV
zc/5dbZSWZWsLi8P2KFhpeIGusX15eze0tlT7BrXcR789UTuEBsRi5IW8BjCPQID
AQABo4ICjTCCAokwCwYDVR0PBAQDAgeAMB0GA1UdJQQWMBQGCCsGAQUFBwMBBggr
BgEFBQcDAjAJBgNVHRMEAjAAMIICDgYDVR0RBIICBTCCAgGCCyoucGl4aXYubmV0
gglwaXhpdi5uZXSCEiouc2VjdXJlLnBpeGl2Lm5ldIIOcGl4aXZpc2lvbi5uZXSC
ECoucGl4aXZpc2lvbi5uZXSCCHBpeGl2Lm1lggoqLnBpeGl2Lm1lgglweGltZy5u
ZXSCCyoucHhpbWcubmV0gg9waXhpdnNrZXRjaC5uZXSCESoucGl4aXZza2V0Y2gu
bmV0ghtwdWJsaWMtYXBpLnNlY3VyZS5waXhpdi5uZXSCDXdpa2lwZWRpYS5vcmeC
Dyoud2lraXBlZGlhLm9yZ4IPbS53aWtpcGVkaWEub3JnghEqLm0ud2lraXBlZGlh
Lm9yZ4IKZ29vZ2xlLmNvbYIMKi5nb29nbGUuY29tghJzdGVhbWNvbW11bml0eS5j
b22CFCouc3RlYW1jb21tdW5pdHkuY29tghBzdGVhbXBvd2VyZWQuY29tghIqLnN0
ZWFtcG93ZXJlZC5jb22CE2FyY2hpdmVvZm91cm93bi5vcmeCFSouYXJjaGl2ZW9m
b3Vyb3duLm9yZ4IHbnlhYS5zaYIJKi5ueWFhLnNpgg13aWtpbWVkaWEub3JnghR1
cGxvYWQud2lraW1lZGlhLm9yZ4IMZXhoZW50YWkub3JnggxlLWhlbnRhaS5vcmeC
E2ZvcnVtcy5lLWhlbnRhaS5vcmcwHQYDVR0OBBYEFP2ytOn6bUNCDiaOSMQE9kDt
ELRMMB8GA1UdIwQYMBaAFCN8VmCaebFsydXsvsvCpSSS4V2CMA0GCSqGSIb3DQEB
CwUAA4IBAQAMLb6R694+B+Q6ZYFpvuNK7oIg2deOoa2PULUijOWHKiUkdxZ0ITrv
hAZ67IzcCzDYWQQefoOjtxslKtZ19o5Ubjzqz7tiwAemGPmtH8Y70ewdKv/JXce0
cW8OFORMVk0r+JpfugaMF9TEjd6uPQLMW+yF5wgCFN44zOXwsQ1ilhpUqa+3NX1E
NA3UyuXq3crV78nSHIAnzwGD93XarK7dHzQv6BV9npdNuil7WPGA5XC+bNQWPxoD
8FIGCyfivfio+7tQ35lFmiSYGAKGq2Ep2/ULThAGPZGsZCfwPayiqmAL1RIRo7yK
AnwiPZzcekz7G98MhDwQUBOYIP/B+phb
-----END CERTIFICATE-----
