Certificate:
    Data:
        Version: 3 (0x2)
        Serial Number: 2 (0x2)
        Signature Algorithm: sha256WithRSAEncryption
        Issuer: C=CN, O=FuckGFW Foundation, CN=Pixiv.net
        Validity
            Not Before: Sep 11 09:53:09 2024 GMT
            Not After : Sep 11 09:53:09 2025 GMT
        Subject: C=CN, O=FuckGFW Foundation, CN=PixivCA
        Subject Public Key Info:
            Public Key Algorithm: rsaEncryption
                Public-Key: (2048 bit)
                Modulus:
                    00:99:2a:6c:20:31:a6:49:7f:bb:ab:66:b8:ea:a5:
                    38:ac:fb:c3:5a:2b:83:eb:60:11:7f:a7:21:8a:d2:
                    ff:bb:0b:46:8a:d4:ed:c9:42:40:2f:41:00:69:7f:
                    98:97:41:f9:2b:d4:b8:33:90:c6:f2:a1:23:23:4c:
                    37:d9:00:d6:bc:f0:83:af:2e:e9:c9:cd:a3:37:ec:
                    61:37:ec:0f:4e:65:32:fd:8e:10:c1:49:ff:46:05:
                    59:ad:71:b9:37:9a:32:70:71:77:22:52:37:94:13:
                    a8:81:9f:d9:55:7f:65:95:cb:a7:a8:a5:bd:4a:45:
                    98:c5:c4:b3:9c:93:a7:fb:fa:ef:90:9c:18:e6:89:
                    46:5a:ac:38:b0:22:5f:1d:25:cc:4d:36:b1:47:a5:
                    1b:16:d2:94:8e:6a:66:14:8a:30:57:4d:4c:56:72:
                    6f:47:c2:ba:23:9e:db:0c:80:9d:55:6d:45:a5:77:
                    cf:4a:b1:1f:7c:32:b2:db:27:83:41:82:86:d7:7f:
                    72:07:50:11:75:64:e4:48:83:72:27:75:2c:03:81:
                    95:cd:cf:f9:75:b6:52:59:95:ac:2e:2f:0f:d8:a1:
                    61:a5:e2:06:ba:c5:f5:e5:ec:de:d2:d9:53:ec:1a:
                    d7:71:1e:fc:f5:44:ee:10:1b:11:8b:92:16:f0:18:
                    c2:3d
                Exponent: 65537 (0x10001)
        X509v3 extensions:
            X509v3 Key Usage: 
                Digital Signature
            X509v3 Extended Key Usage: 
                TLS Web Server Authentication, TLS Web Client Authentication
            X509v3 Basic Constraints: 
                CA:FALSE
            X509v3 Subject Alternative Name: 
                DNS:*.pixiv.net, DNS:pixiv.net, DNS:*.secure.pixiv.net, DNS:pixivision.net, DNS:*.pixivision.net, DNS:pixiv.me, DNS:*.pixiv.me, DNS:pximg.net, DNS:*.pximg.net, DNS:pixivsketch.net, DNS:*.pixivsketch.net, DNS:public-api.secure.pixiv.net, DNS:wikipedia.org, DNS:*.wikipedia.org, DNS:m.wikipedia.org, DNS:*.m.wikipedia.org, DNS:google.com, DNS:*.google.com, DNS:steamcommunity.com, DNS:*.steamcommunity.com, DNS:steampowered.com, DNS:*.steampowered.com, DNS:archiveofourown.org, DNS:*.archiveofourown.org, DNS:nyaa.si, DNS:*.nyaa.si, DNS:wikimedia.org, DNS:upload.wikimedia.org, DNS:exhentai.org, DNS:e-hentai.org, DNS:forums.e-hentai.org, DNS:github.com, DNS:*.github.com, DNS:workers.dev
            X509v3 Subject Key Identifier: 
                FD:B2:B4:E9:FA:6D:43:42:0E:26:8E:48:C4:04:F6:40:ED:10:B4:4C
            X509v3 Authority Key Identifier: 
                23:7C:56:60:9A:79:B1:6C:C9:D5:EC:BE:CB:C2:A5:24:92:E1:5D:82
    Signature Algorithm: sha256WithRSAEncryption
    Signature Value:
        37:f6:69:db:77:77:4e:33:2b:f5:33:94:d5:a7:2a:b8:63:cf:
        62:59:d1:1d:29:ee:3d:1c:54:33:d9:0f:6a:6a:2a:25:ee:dd:
        37:fe:20:64:25:cd:63:fa:31:98:40:71:2f:7e:11:47:8f:d3:
        5b:7e:37:12:67:f1:ea:99:1b:47:b1:a3:36:42:c8:da:c4:6b:
        4e:3a:98:68:37:af:d3:ec:9f:28:27:e1:52:9c:b7:32:90:d5:
        e5:32:19:95:d5:30:54:b3:aa:1d:87:97:90:47:d6:3e:6e:b8:
        d0:8d:19:0e:d2:47:23:3f:73:ca:de:7b:97:78:6f:06:d5:b2:
        fa:ef:b6:79:aa:9c:d3:73:97:0c:57:c3:b3:8e:ca:8b:72:24:
        01:0d:e2:3f:36:43:1b:34:e7:7f:38:fc:fb:b8:35:55:12:4c:
        ee:71:48:f6:c0:81:af:42:e4:8e:86:b3:3c:8a:8c:ed:53:f1:
        22:d7:26:d4:ed:d7:c7:ea:0d:74:19:38:2e:12:22:7f:5b:f2:
        2a:c4:86:40:5e:3f:9e:e6:14:95:98:2f:17:80:fa:bb:33:61:
        76:33:bf:d0:42:34:63:fd:bb:b0:1e:99:ec:f6:c4:b6:c3:33:
        e3:66:4f:c7:ac:43:9d:b3:28:63:d6:36:b1:c2:9c:a6:2d:d6:
        55:79:a1:c4
-----BEGIN CERTIFICATE-----
MIIFqzCCBJOgAwIBAgIBAjANBgkqhkiG9w0BAQsFADA+MQswCQYDVQQGEwJDTjEb
MBkGA1UECgwSRnVja0dGVyBGb3VuZGF0aW9uMRIwEAYDVQQDDAlQaXhpdi5uZXQw
HhcNMjQwOTExMDk1MzA5WhcNMjUwOTExMDk1MzA5WjA8MQswCQYDVQQGEwJDTjEb
MBkGA1UECgwSRnVja0dGVyBGb3VuZGF0aW9uMRAwDgYDVQQDDAdQaXhpdkNBMIIB
IjANBgkqhkiG9w0BAQEFAAOCAQ8AMIIBCgKCAQEAmSpsIDGmSX+7q2a46qU4rPvD
WiuD62ARf6chitL/uwtGitTtyUJAL0EAaX+Yl0H5K9S4M5DG8qEjI0w32QDWvPCD
ry7pyc2jN+xhN+wPTmUy/Y4QwUn/RgVZrXG5N5oycHF3IlI3lBOogZ/ZVX9llcun
qKW9SkWYxcSznJOn+/rvkJwY5olGWqw4sCJfHSXMTTaxR6UbFtKUjmpmFIowV01M
VnJvR8K6I57bDICdVW1FpXfPSrEffDKy2yeDQYKG139yB1ARdWTkSINyJ3UsA4GV
zc/5dbZSWZWsLi8P2KFhpeIGusX15eze0tlT7BrXcR789UTuEBsRi5IW8BjCPQID
AQABo4ICtDCCArAwCwYDVR0PBAQDAgeAMB0GA1UdJQQWMBQGCCsGAQUFBwMBBggr
BgEFBQcDAjAJBgNVHRMEAjAAMIICNQYDVR0RBIICLDCCAiiCCyoucGl4aXYubmV0
gglwaXhpdi5uZXSCEiouc2VjdXJlLnBpeGl2Lm5ldIIOcGl4aXZpc2lvbi5uZXSC
ECoucGl4aXZpc2lvbi5uZXSCCHBpeGl2Lm1lggoqLnBpeGl2Lm1lgglweGltZy5u
ZXSCCyoucHhpbWcubmV0gg9waXhpdnNrZXRjaC5uZXSCESoucGl4aXZza2V0Y2gu
bmV0ghtwdWJsaWMtYXBpLnNlY3VyZS5waXhpdi5uZXSCDXdpa2lwZWRpYS5vcmeC
Dyoud2lraXBlZGlhLm9yZ4IPbS53aWtpcGVkaWEub3JnghEqLm0ud2lraXBlZGlh
Lm9yZ4IKZ29vZ2xlLmNvbYIMKi5nb29nbGUuY29tghJzdGVhbWNvbW11bml0eS5j
b22CFCouc3RlYW1jb21tdW5pdHkuY29tghBzdGVhbXBvd2VyZWQuY29tghIqLnN0
ZWFtcG93ZXJlZC5jb22CE2FyY2hpdmVvZm91cm93bi5vcmeCFSouYXJjaGl2ZW9m
b3Vyb3duLm9yZ4IHbnlhYS5zaYIJKi5ueWFhLnNpgg13aWtpbWVkaWEub3JnghR1
cGxvYWQud2lraW1lZGlhLm9yZ4IMZXhoZW50YWkub3JnggxlLWhlbnRhaS5vcmeC
E2ZvcnVtcy5lLWhlbnRhaS5vcmeCCmdpdGh1Yi5jb22CDCouZ2l0aHViLmNvbYIL
d29ya2Vycy5kZXYwHQYDVR0OBBYEFP2ytOn6bUNCDiaOSMQE9kDtELRMMB8GA1Ud
IwQYMBaAFCN8VmCaebFsydXsvsvCpSSS4V2CMA0GCSqGSIb3DQEBCwUAA4IBAQA3
9mnbd3dOMyv1M5TVpyq4Y89iWdEdKe49HFQz2Q9qaiol7t03/iBkJc1j+jGYQHEv
fhFHj9NbfjcSZ/HqmRtHsaM2QsjaxGtOOphoN6/T7J8oJ+FSnLcykNXlMhmV1TBU
s6odh5eQR9Y+brjQjRkO0kcjP3PK3nuXeG8G1bL677Z5qpzTc5cMV8OzjsqLciQB
DeI/NkMbNOd/OPz7uDVVEkzucUj2wIGvQuSOhrM8ioztU/Ei1ybU7dfH6g10GTgu
EiJ/W/IqxIZAXj+e5hSVmC8XgPq7M2F2M7/QQjRj/buwHpns9sS2wzPjZk/HrEOd
syhj1jaxwpymLdZVeaHE
-----END CERTIFICATE-----
